target datalayout = "e-m:e-p270:32:32-p271:32:32-p272:64:64-i64:64-i128:128-f80:128-n8:16:32:64-S128"
target triple = "x86_64-pc-linux-gnu"

%struct.expert_field = type { i32, i32 }
%struct._e_guid_t = type { i32, i16, i16, [8 x i8] }
%struct._dcerpc_info = type { ptr, i32, i64, i8, i32, i32, i32, i32, i32, i32, i32, i32, i32, i32, ptr, ptr, ptr }
%struct.nstime_t = type { i64, i32 }
%struct._dcerpc_call_value = type { %struct._e_guid_t, i16, %struct._e_guid_t, i16, i32, %struct.nstime_t, i32, i32, ptr, ptr, ptr, i32 }
%struct.BUFFER = type { ptr, ptr, ptr }

@hf_driverinfo_cversion = internal global i32 0, align 4
@hf_rc = internal global i32 0, align 4
@hf_needed = internal global i32 0, align 4
@hf_returned = internal global i32 0, align 4
@hf_environment = internal global i32 0, align 4
@hf_drivername = internal global i32 0, align 4
@.str.435 = private unnamed_addr constant [7 x i8] c"Buffer\00", align 1
@ett_DRIVER_INFO_1 = internal global i32 0, align 4
@ett_DRIVER_INFO_101 = internal global i32 0, align 4
@ei_unknown_data = internal global %struct.expert_field zeroinitializer, align 4
@ei_driver_info_level = internal global %struct.expert_field zeroinitializer, align 4
@.str.1218 = private unnamed_addr constant [29 x i8] c"Unknown driver info level %d\00", align 1
@.str.1219 = private unnamed_addr constant [20 x i8] c"Driver info level 1\00", align 1
@.str.1226 = private unnamed_addr constant [22 x i8] c"Driver info level 101\00", align 1

; Function Attrs: nounwind uwtable
define internal i32 @dissect_DRIVER_INFO_101(ptr noundef %0, i32 noundef %1, ptr noundef %2, ptr noundef %3, ptr noundef %4, ptr noundef %5) #0 {
  %7 = alloca ptr, align 8
  %8 = alloca i32, align 4
  %9 = alloca ptr, align 8
  %10 = alloca ptr, align 8
  %11 = alloca ptr, align 8
  %12 = alloca ptr, align 8
  %13 = alloca ptr, align 8
  %14 = alloca i32, align 4
  store ptr %0, ptr %7, align 8
  store i32 %1, ptr %8, align 4
  store ptr %2, ptr %9, align 8
  store ptr %3, ptr %10, align 8
  store ptr %4, ptr %11, align 8
  store ptr %5, ptr %12, align 8
  %15 = load i32, ptr %8, align 4
  store i32 %15, ptr %14, align 4
  %16 = load ptr, ptr %10, align 8
  %17 = load ptr, ptr %7, align 8
  %18 = load i32, ptr %8, align 4
  %19 = load i32, ptr @ett_DRIVER_INFO_101, align 4
  %20 = call ptr @proto_tree_add_subtree(ptr noundef %16, ptr noundef %17, i32 noundef %18, i32 noundef 0, i32 noundef %19, ptr noundef null, ptr noundef @.str.1226)
  store ptr %20, ptr %13, align 8
  %21 = load ptr, ptr %7, align 8
  %22 = load i32, ptr %8, align 4
  %23 = load ptr, ptr %9, align 8
  %24 = load ptr, ptr %13, align 8
  %25 = load ptr, ptr %11, align 8
  %26 = load ptr, ptr %12, align 8
  %27 = load i32, ptr @hf_driverinfo_cversion, align 4
  %28 = call i32 @dissect_ndr_uint32(ptr noundef %21, i32 noundef %22, ptr noundef %23, ptr noundef %24, ptr noundef %25, ptr noundef %26, i32 noundef %27, ptr noundef null)
  store i32 %28, ptr %8, align 4
  %29 = load ptr, ptr %7, align 8
  %30 = load i32, ptr %8, align 4
  %31 = load ptr, ptr %9, align 8
  %32 = load ptr, ptr %13, align 8
  %33 = load ptr, ptr %11, align 8
  %34 = load ptr, ptr %12, align 8
  %35 = load i32, ptr @hf_drivername, align 4
  %36 = load i32, ptr %14, align 4
  %37 = call i32 @dissect_spoolss_relstr(ptr noundef %29, i32 noundef %30, ptr noundef %31, ptr noundef %32, ptr noundef %33, ptr noundef %34, i32 noundef %35, i32 noundef %36, ptr noundef null)
  store i32 %37, ptr %8, align 4
  %38 = load ptr, ptr %7, align 8
  %39 = load i32, ptr %8, align 4
  %40 = load ptr, ptr %9, align 8
  %41 = load ptr, ptr %13, align 8
  %42 = load ptr, ptr %11, align 8
  %43 = load ptr, ptr %12, align 8
  %44 = load i32, ptr @hf_environment, align 4
  %45 = load i32, ptr %14, align 4
  %46 = call i32 @dissect_spoolss_relstr(ptr noundef %38, i32 noundef %39, ptr noundef %40, ptr noundef %41, ptr noundef %42, ptr noundef %43, i32 noundef %44, i32 noundef %45, ptr noundef null)
  store i32 %46, ptr %8, align 4
  %47 = load ptr, ptr %13, align 8
  %48 = load ptr, ptr %9, align 8
  %49 = load ptr, ptr %7, align 8
  %50 = load i32, ptr %8, align 4
  %51 = call ptr @proto_tree_add_expert(ptr noundef %47, ptr noundef %48, ptr noundef @ei_unknown_data, ptr noundef %49, i32 noundef %50, i32 noundef 0)
  %52 = load i32, ptr %8, align 4
  ret i32 %52
}

; Function Attrs: nounwind uwtable
define internal i32 @dissect_DRIVER_INFO_1(ptr noundef %0, i32 noundef %1, ptr noundef %2, ptr noundef %3, ptr noundef %4, ptr noundef %5) #0 {
  %7 = alloca ptr, align 8
  %8 = alloca i32, align 4
  %9 = alloca ptr, align 8
  %10 = alloca ptr, align 8
  %11 = alloca ptr, align 8
  %12 = alloca ptr, align 8
  %13 = alloca ptr, align 8
  %14 = alloca i32, align 4
  store ptr %0, ptr %7, align 8
  store i32 %1, ptr %8, align 4
  store ptr %2, ptr %9, align 8
  store ptr %3, ptr %10, align 8
  store ptr %4, ptr %11, align 8
  store ptr %5, ptr %12, align 8
  %15 = load i32, ptr %8, align 4
  store i32 %15, ptr %14, align 4
  %16 = load ptr, ptr %10, align 8
  %17 = load ptr, ptr %7, align 8
  %18 = load i32, ptr %8, align 4
  %19 = load i32, ptr @ett_DRIVER_INFO_1, align 4
  %20 = call ptr @proto_tree_add_subtree(ptr noundef %16, ptr noundef %17, i32 noundef %18, i32 noundef 0, i32 noundef %19, ptr noundef null, ptr noundef @.str.1219)
  store ptr %20, ptr %13, align 8
  %21 = load ptr, ptr %7, align 8
  %22 = load i32, ptr %8, align 4
  %23 = load ptr, ptr %9, align 8
  %24 = load ptr, ptr %13, align 8
  %25 = load ptr, ptr %11, align 8
  %26 = load ptr, ptr %12, align 8
  %27 = load i32, ptr @hf_drivername, align 4
  %28 = load i32, ptr %14, align 4
  %29 = call i32 @dissect_spoolss_relstr(ptr noundef %21, i32 noundef %22, ptr noundef %23, ptr noundef %24, ptr noundef %25, ptr noundef %26, i32 noundef %27, i32 noundef %28, ptr noundef null)
  store i32 %29, ptr %8, align 4
  %30 = load i32, ptr %8, align 4
  ret i32 %30
}

; Function Attrs: nounwind uwtable
define internal i32 @dissect_spoolss_buffer(ptr noundef %0, i32 noundef %1, ptr noundef %2, ptr noundef %3, ptr noundef %4, ptr noundef %5, ptr noundef %6) #0 {
  %8 = alloca ptr, align 8
  %9 = alloca i32, align 4
  %10 = alloca ptr, align 8
  %11 = alloca ptr, align 8
  %12 = alloca ptr, align 8
  %13 = alloca ptr, align 8
  %14 = alloca ptr, align 8
  store ptr %0, ptr %8, align 8
  store i32 %1, ptr %9, align 4
  store ptr %2, ptr %10, align 8
  store ptr %3, ptr %11, align 8
  store ptr %4, ptr %12, align 8
  store ptr %5, ptr %13, align 8
  store ptr %6, ptr %14, align 8
  %15 = load ptr, ptr %14, align 8
  %16 = icmp ne ptr %15, null
  br i1 %16, label %17, label %19

17:                                               ; preds = %7
  %18 = load ptr, ptr %14, align 8
  call void @llvm.memset.p0.i64(ptr align 8 %18, i8 0, i64 24, i1 false)
  br label %19

19:                                               ; preds = %17, %7
  %20 = load ptr, ptr %14, align 8
  %21 = load ptr, ptr %12, align 8
  %22 = getelementptr inbounds %struct._dcerpc_info, ptr %21, i32 0, i32 16
  store ptr %20, ptr %22, align 8
  %23 = load ptr, ptr %8, align 8
  %24 = load i32, ptr %9, align 4
  %25 = load ptr, ptr %10, align 8
  %26 = load ptr, ptr %11, align 8
  %27 = load ptr, ptr %12, align 8
  %28 = load ptr, ptr %13, align 8
  %29 = call i32 @dissect_ndr_pointer(ptr noundef %23, i32 noundef %24, ptr noundef %25, ptr noundef %26, ptr noundef %27, ptr noundef %28, ptr noundef @dissect_spoolss_buffer_data, i32 noundef 2, ptr noundef @.str.435, i32 noundef -1)
  store i32 %29, ptr %9, align 4
  %30 = load i32, ptr %9, align 4
  ret i32 %30
}

; Function Attrs: nounwind uwtable
define internal i32 @SpoolssEnumPrinterDrivers_r(ptr noundef %0, i32 noundef %1, ptr noundef %2, ptr noundef %3, ptr noundef %4, ptr noundef %5) #0 {
  %7 = alloca ptr, align 8
  %8 = alloca i32, align 4
  %9 = alloca ptr, align 8
  %10 = alloca ptr, align 8
  %11 = alloca ptr, align 8
  %12 = alloca ptr, align 8
  %13 = alloca ptr, align 8
  %14 = alloca i32, align 4
  %15 = alloca i32, align 4
  %16 = alloca i32, align 4
  %17 = alloca i32, align 4
  %18 = alloca %struct.BUFFER, align 8
  store ptr %0, ptr %7, align 8
  store i32 %1, ptr %8, align 4
  store ptr %2, ptr %9, align 8
  store ptr %3, ptr %10, align 8
  store ptr %4, ptr %11, align 8
  store ptr %5, ptr %12, align 8
  %19 = load ptr, ptr %11, align 8
  %20 = getelementptr inbounds %struct._dcerpc_info, ptr %19, i32 0, i32 14
  %21 = load ptr, ptr %20, align 8
  store ptr %21, ptr %13, align 8
  %22 = load ptr, ptr %13, align 8
  %23 = getelementptr inbounds %struct._dcerpc_call_value, ptr %22, i32 0, i32 8
  %24 = load ptr, ptr %23, align 8
  %25 = ptrtoint ptr %24 to i64
  %26 = trunc i64 %25 to i32
  store i32 %26, ptr %14, align 4
  %27 = load ptr, ptr %7, align 8
  %28 = load i32, ptr %8, align 4
  %29 = load ptr, ptr %9, align 8
  %30 = load ptr, ptr %10, align 8
  %31 = load ptr, ptr %11, align 8
  %32 = load ptr, ptr %12, align 8
  %33 = call i32 @dissect_spoolss_buffer(ptr noundef %27, i32 noundef %28, ptr noundef %29, ptr noundef %30, ptr noundef %31, ptr noundef %32, ptr noundef %18)
  store i32 %33, ptr %8, align 4
  %34 = load ptr, ptr %7, align 8
  %35 = load i32, ptr %8, align 4
  %36 = load ptr, ptr %9, align 8
  %37 = load ptr, ptr %10, align 8
  %38 = load ptr, ptr %11, align 8
  %39 = load ptr, ptr %12, align 8
  %40 = load i32, ptr @hf_needed, align 4
  %41 = call i32 @dissect_ndr_uint32(ptr noundef %34, i32 noundef %35, ptr noundef %36, ptr noundef %37, ptr noundef %38, ptr noundef %39, i32 noundef %40, ptr noundef null)
  store i32 %41, ptr %8, align 4
  %42 = load ptr, ptr %7, align 8
  %43 = load i32, ptr %8, align 4
  %44 = load ptr, ptr %9, align 8
  %45 = load ptr, ptr %10, align 8
  %46 = load ptr, ptr %11, align 8
  %47 = load ptr, ptr %12, align 8
  %48 = load i32, ptr @hf_returned, align 4
  %49 = call i32 @dissect_ndr_uint32(ptr noundef %42, i32 noundef %43, ptr noundef %44, ptr noundef %45, ptr noundef %46, ptr noundef %47, i32 noundef %48, ptr noundef %15)
  store i32 %49, ptr %8, align 4
  store i32 0, ptr %17, align 4
  store i32 0, ptr %16, align 4
  br label %50

50:                                               ; preds = %126, %6
  %51 = load i32, ptr %16, align 4
  %52 = load i32, ptr %15, align 4
  %53 = icmp ult i32 %51, %52
  br i1 %53, label %54, label %129

54:                                               ; preds = %50
  %55 = load i32, ptr %14, align 4
  switch i32 %55, label %116 [
    i32 1, label %56
    i32 2, label %66
    i32 3, label %76
    i32 6, label %86
    i32 8, label %96
    i32 101, label %106
  ]

56:                                               ; preds = %54
  %57 = getelementptr inbounds %struct.BUFFER, ptr %18, i32 0, i32 0
  %58 = load ptr, ptr %57, align 8
  %59 = load i32, ptr %17, align 4
  %60 = load ptr, ptr %9, align 8
  %61 = getelementptr inbounds %struct.BUFFER, ptr %18, i32 0, i32 1
  %62 = load ptr, ptr %61, align 8
  %63 = load ptr, ptr %11, align 8
  %64 = load ptr, ptr %12, align 8
  %65 = call i32 @dissect_DRIVER_INFO_1(ptr noundef %58, i32 noundef %59, ptr noundef %60, ptr noundef %62, ptr noundef %63, ptr noundef %64)
  store i32 %65, ptr %17, align 4
  br label %125

66:                                               ; preds = %54
  %67 = getelementptr inbounds %struct.BUFFER, ptr %18, i32 0, i32 0
  %68 = load ptr, ptr %67, align 8
  %69 = load i32, ptr %17, align 4
  %70 = load ptr, ptr %9, align 8
  %71 = getelementptr inbounds %struct.BUFFER, ptr %18, i32 0, i32 1
  %72 = load ptr, ptr %71, align 8
  %73 = load ptr, ptr %11, align 8
  %74 = load ptr, ptr %12, align 8
  %75 = call i32 @dissect_DRIVER_INFO_2(ptr noundef %68, i32 noundef %69, ptr noundef %70, ptr noundef %72, ptr noundef %73, ptr noundef %74)
  store i32 %75, ptr %17, align 4
  br label %125

76:                                               ; preds = %54
  %77 = getelementptr inbounds %struct.BUFFER, ptr %18, i32 0, i32 0
  %78 = load ptr, ptr %77, align 8
  %79 = load i32, ptr %17, align 4
  %80 = load ptr, ptr %9, align 8
  %81 = getelementptr inbounds %struct.BUFFER, ptr %18, i32 0, i32 1
  %82 = load ptr, ptr %81, align 8
  %83 = load ptr, ptr %11, align 8
  %84 = load ptr, ptr %12, align 8
  %85 = call i32 @dissect_DRIVER_INFO_3(ptr noundef %78, i32 noundef %79, ptr noundef %80, ptr noundef %82, ptr noundef %83, ptr noundef %84)
  store i32 %85, ptr %17, align 4
  br label %125

86:                                               ; preds = %54
  %87 = getelementptr inbounds %struct.BUFFER, ptr %18, i32 0, i32 0
  %88 = load ptr, ptr %87, align 8
  %89 = load i32, ptr %17, align 4
  %90 = load ptr, ptr %9, align 8
  %91 = getelementptr inbounds %struct.BUFFER, ptr %18, i32 0, i32 1
  %92 = load ptr, ptr %91, align 8
  %93 = load ptr, ptr %11, align 8
  %94 = load ptr, ptr %12, align 8
  %95 = call i32 @dissect_DRIVER_INFO_6(ptr noundef %88, i32 noundef %89, ptr noundef %90, ptr noundef %92, ptr noundef %93, ptr noundef %94)
  store i32 %95, ptr %17, align 4
  br label %125

96:                                               ; preds = %54
  %97 = getelementptr inbounds %struct.BUFFER, ptr %18, i32 0, i32 0
  %98 = load ptr, ptr %97, align 8
  %99 = load i32, ptr %17, align 4
  %100 = load ptr, ptr %9, align 8
  %101 = getelementptr inbounds %struct.BUFFER, ptr %18, i32 0, i32 1
  %102 = load ptr, ptr %101, align 8
  %103 = load ptr, ptr %11, align 8
  %104 = load ptr, ptr %12, align 8
  %105 = call i32 @dissect_DRIVER_INFO_8(ptr noundef %98, i32 noundef %99, ptr noundef %100, ptr noundef %102, ptr noundef %103, ptr noundef %104)
  store i32 %105, ptr %17, align 4
  br label %125

106:                                              ; preds = %54
  %107 = getelementptr inbounds %struct.BUFFER, ptr %18, i32 0, i32 0
  %108 = load ptr, ptr %107, align 8
  %109 = load i32, ptr %17, align 4
  %110 = load ptr, ptr %9, align 8
  %111 = getelementptr inbounds %struct.BUFFER, ptr %18, i32 0, i32 1
  %112 = load ptr, ptr %111, align 8
  %113 = load ptr, ptr %11, align 8
  %114 = load ptr, ptr %12, align 8
  %115 = call i32 @dissect_DRIVER_INFO_101(ptr noundef %108, i32 noundef %109, ptr noundef %110, ptr noundef %112, ptr noundef %113, ptr noundef %114)
  br label %130

116:                                              ; preds = %54
  %117 = getelementptr inbounds %struct.BUFFER, ptr %18, i32 0, i32 1
  %118 = load ptr, ptr %117, align 8
  %119 = load ptr, ptr %9, align 8
  %120 = getelementptr inbounds %struct.BUFFER, ptr %18, i32 0, i32 0
  %121 = load ptr, ptr %120, align 8
  %122 = load i32, ptr %17, align 4
  %123 = load i32, ptr %14, align 4
  %124 = call ptr (ptr, ptr, ptr, ptr, i32, i32, ptr, ...) @proto_tree_add_expert_format(ptr noundef %118, ptr noundef %119, ptr noundef @ei_driver_info_level, ptr noundef %121, i32 noundef %122, i32 noundef -1, ptr noundef @.str.1218, i32 noundef %123)
  br label %130

125:                                              ; preds = %96, %86, %76, %66, %56
  br label %126

126:                                              ; preds = %125
  %127 = load i32, ptr %16, align 4
  %128 = add i32 %127, 1
  store i32 %128, ptr %16, align 4
  br label %50, !llvm.loop !8

129:                                              ; preds = %50
  br label %130

130:                                              ; preds = %129, %116, %106
  %131 = load ptr, ptr %7, align 8
  %132 = load i32, ptr %8, align 4
  %133 = load ptr, ptr %9, align 8
  %134 = load ptr, ptr %10, align 8
  %135 = load ptr, ptr %11, align 8
  %136 = load ptr, ptr %12, align 8
  %137 = load i32, ptr @hf_rc, align 4
  %138 = call i32 @dissect_doserror(ptr noundef %131, i32 noundef %132, ptr noundef %133, ptr noundef %134, ptr noundef %135, ptr noundef %136, i32 noundef %137, ptr noundef null)
  store i32 %138, ptr %8, align 4
  %139 = load i32, ptr %8, align 4
  ret i32 %139
}