; Function Attrs: nounwind uwtable
define internal i32 @SpoolssEnumPrinterDrivers_r(ptr noundef %0, i32 noundef %1, ptr noundef %2, ptr noundef %3, ptr noundef initializes((88, 96)) %4, ptr noundef %5) #0 {
  %7 = alloca i32, align 4
  %8 = alloca %struct.BUFFER, align 8
  %9 = getelementptr inbounds nuw i8, ptr %4, i64 72
  %10 = load ptr, ptr %9, align 8
  %11 = getelementptr inbounds nuw i8, ptr %10, i64 72
  %12 = load ptr, ptr %11, align 8
  %13 = ptrtoint ptr %12 to i64
  %14 = trunc i64 %13 to i32
  call void @llvm.memset.p0.i64(ptr noundef nonnull align 8 dereferenceable(24) %8, i8 0, i64 24, i1 false)
  %15 = getelementptr inbounds nuw i8, ptr %4, i64 88
  store ptr %8, ptr %15, align 8
  %16 = call i32 @dissect_ndr_pointer(ptr noundef %0, i32 noundef %1, ptr noundef %2, ptr noundef %3, ptr noundef %4, ptr noundef %5, ptr noundef nonnull @dissect_spoolss_buffer_data, i32 noundef 2, ptr noundef nonnull @.str.435, i32 noundef -1) #5
  %17 = load i32, ptr @hf_needed, align 4
  %18 = call i32 @dissect_ndr_uint32(ptr noundef %0, i32 noundef %16, ptr noundef %2, ptr noundef %3, ptr noundef %4, ptr noundef %5, i32 noundef %17, ptr noundef null) #5
  %19 = load i32, ptr @hf_returned, align 4
  %20 = call i32 @dissect_ndr_uint32(ptr noundef %0, i32 noundef %18, ptr noundef %2, ptr noundef %3, ptr noundef %4, ptr noundef %5, i32 noundef %19, ptr noundef nonnull %7) #5
  %21 = load i32, ptr %7, align 4
  %.not = icmp eq i32 %21, 0
  br i1 %.not, label %.loopexit, label %.lr.ph

.lr.ph:                                           ; preds = %6
  %22 = getelementptr inbounds nuw i8, ptr %8, i64 8
  switch i32 %14, label %.lr.ph.split [
    i32 1, label %.lr.ph.split.us
    i32 2, label %.lr.ph.split.us61
    i32 3, label %.lr.ph.split.us65
    i32 6, label %.lr.ph.split.us69
    i32 8, label %.lr.ph.split.us73
    i32 101, label %.split.us
  ]

.lr.ph.split.us:                                  ; preds = %.lr.ph, %.lr.ph.split.us
  %.060.us = phi i32 [ %28, %.lr.ph.split.us ], [ 0, %.lr.ph ]
  %.05659.us = phi i32 [ %29, %.lr.ph.split.us ], [ 0, %.lr.ph ]
  %23 = load ptr, ptr %8, align 8
  %24 = load ptr, ptr %22, align 8
  %25 = load i32, ptr @ett_DRIVER_INFO_1, align 4
  %26 = call ptr @proto_tree_add_subtree(ptr noundef %24, ptr noundef %23, i32 noundef %.060.us, i32 noundef 0, i32 noundef %25, ptr noundef null, ptr noundef nonnull @.str.1219) #5
  %27 = load i32, ptr @hf_drivername, align 4
  %28 = call fastcc i32 @dissect_spoolss_relstr(ptr noundef %23, i32 noundef %.060.us, ptr noundef %2, ptr noundef %26, ptr noundef %4, ptr noundef %5, i32 noundef %27, i32 noundef %.060.us, ptr noundef null)
  %29 = add nuw i32 %.05659.us, 1
  %30 = load i32, ptr %7, align 4
  %31 = icmp ult i32 %29, %30
  br i1 %31, label %.lr.ph.split.us, label %.loopexit, !llvm.loop !7

.lr.ph.split.us61:                                ; preds = %.lr.ph, %.lr.ph.split.us61
  %.060.us62 = phi i32 [ %34, %.lr.ph.split.us61 ], [ 0, %.lr.ph ]
  %.05659.us63 = phi i32 [ %35, %.lr.ph.split.us61 ], [ 0, %.lr.ph ]
  %32 = load ptr, ptr %8, align 8
  %33 = load ptr, ptr %22, align 8
  %34 = call fastcc i32 @dissect_DRIVER_INFO_2(ptr noundef %32, i32 noundef %.060.us62, ptr noundef %2, ptr noundef %33, ptr noundef %4, ptr noundef %5)
  %35 = add nuw i32 %.05659.us63, 1
  %36 = load i32, ptr %7, align 4
  %37 = icmp ult i32 %35, %36
  br i1 %37, label %.lr.ph.split.us61, label %.loopexit, !llvm.loop !7

.lr.ph.split.us65:                                ; preds = %.lr.ph, %.lr.ph.split.us65
  %.060.us66 = phi i32 [ %40, %.lr.ph.split.us65 ], [ 0, %.lr.ph ]
  %.05659.us67 = phi i32 [ %41, %.lr.ph.split.us65 ], [ 0, %.lr.ph ]
  %38 = load ptr, ptr %8, align 8
  %39 = load ptr, ptr %22, align 8
  %40 = call fastcc i32 @dissect_DRIVER_INFO_3(ptr noundef %38, i32 noundef %.060.us66, ptr noundef %2, ptr noundef %39, ptr noundef %4, ptr noundef %5)
  %41 = add nuw i32 %.05659.us67, 1
  %42 = load i32, ptr %7, align 4
  %43 = icmp ult i32 %41, %42
  br i1 %43, label %.lr.ph.split.us65, label %.loopexit, !llvm.loop !7

.lr.ph.split.us69:                                ; preds = %.lr.ph, %.lr.ph.split.us69
  %.060.us70 = phi i32 [ %46, %.lr.ph.split.us69 ], [ 0, %.lr.ph ]
  %.05659.us71 = phi i32 [ %47, %.lr.ph.split.us69 ], [ 0, %.lr.ph ]
  %44 = load ptr, ptr %8, align 8
  %45 = load ptr, ptr %22, align 8
  %46 = call fastcc i32 @dissect_DRIVER_INFO_6(ptr noundef %44, i32 noundef %.060.us70, ptr noundef %2, ptr noundef %45, ptr noundef %4, ptr noundef %5)
  %47 = add nuw i32 %.05659.us71, 1
  %48 = load i32, ptr %7, align 4
  %49 = icmp ult i32 %47, %48
  br i1 %49, label %.lr.ph.split.us69, label %.loopexit, !llvm.loop !7

.lr.ph.split.us73:                                ; preds = %.lr.ph, %.lr.ph.split.us73
  %.060.us74 = phi i32 [ %52, %.lr.ph.split.us73 ], [ 0, %.lr.ph ]
  %.05659.us75 = phi i32 [ %53, %.lr.ph.split.us73 ], [ 0, %.lr.ph ]
  %50 = load ptr, ptr %8, align 8
  %51 = load ptr, ptr %22, align 8
  %52 = call fastcc i32 @dissect_DRIVER_INFO_8(ptr noundef %50, i32 noundef %.060.us74, ptr noundef %2, ptr noundef %51, ptr noundef %4, ptr noundef %5)
  %53 = add nuw i32 %.05659.us75, 1
  %54 = load i32, ptr %7, align 4
  %55 = icmp ult i32 %53, %54
  br i1 %55, label %.lr.ph.split.us73, label %.loopexit, !llvm.loop !7

.split.us:                                        ; preds = %.lr.ph
  %56 = load ptr, ptr %8, align 8
  %57 = load ptr, ptr %22, align 8
  %58 = load i32, ptr @ett_DRIVER_INFO_101, align 4
  %59 = call ptr @proto_tree_add_subtree(ptr noundef %57, ptr noundef %56, i32 noundef 0, i32 noundef 0, i32 noundef %58, ptr noundef null, ptr noundef nonnull @.str.1226) #5
  %60 = load i32, ptr @hf_driverinfo_cversion, align 4
  %61 = call i32 @dissect_ndr_uint32(ptr noundef %56, i32 noundef 0, ptr noundef %2, ptr noundef %59, ptr noundef nonnull %4, ptr noundef %5, i32 noundef %60, ptr noundef null) #5
  %62 = load i32, ptr @hf_drivername, align 4
  %63 = call fastcc i32 @dissect_spoolss_relstr(ptr noundef %56, i32 noundef %61, ptr noundef %2, ptr noundef %59, ptr noundef nonnull %4, ptr noundef %5, i32 noundef %62, i32 noundef 0, ptr noundef null)
  %64 = load i32, ptr @hf_environment, align 4
  %65 = call fastcc i32 @dissect_spoolss_relstr(ptr noundef %56, i32 noundef %63, ptr noundef %2, ptr noundef %59, ptr noundef nonnull %4, ptr noundef %5, i32 noundef %64, i32 noundef 0, ptr noundef null)
  %66 = call ptr @proto_tree_add_expert(ptr noundef %59, ptr noundef %2, ptr noundef nonnull @ei_unknown_data, ptr noundef %56, i32 noundef %65, i32 noundef 0) #5
  br label %.loopexit

.lr.ph.split:                                     ; preds = %.lr.ph
  %67 = load ptr, ptr %22, align 8
  %68 = load ptr, ptr %8, align 8
  %69 = call ptr (ptr, ptr, ptr, ptr, i32, i32, ptr, ...) @proto_tree_add_expert_format(ptr noundef %67, ptr noundef %2, ptr noundef nonnull @ei_driver_info_level, ptr noundef %68, i32 noundef 0, i32 noundef -1, ptr noundef nonnull @.str.1218, i32 noundef %14) #5
  br label %.loopexit

.loopexit:                                        ; preds = %.lr.ph.split.us73, %.lr.ph.split.us69, %.lr.ph.split.us65, %.lr.ph.split.us61, %.lr.ph.split.us, %6, %.lr.ph.split, %.split.us
  %70 = load i32, ptr @hf_rc, align 4
  %71 = call i32 @dissect_doserror(ptr noundef %0, i32 noundef %20, ptr noundef %2, ptr noundef %3, ptr noundef %4, ptr noundef %5, i32 noundef %70, ptr noundef null) #5
  ret i32 %71
}